target datalayout = "e-m:e-p270:32:32-p271:32:32-p272:64:64-i64:64-i128:128-f80:128-n8:16:32:64-S128"
target triple = "x86_64-unknown-linux-gnu"

%struct.hdr_histogram = type { i64, i64, i32, i32, i32, i32, i64, i32, i32, i64, i64, i32, double, i32, i64, ptr }
%struct.hdr_iter = type { ptr, i32, i64, i64, i64, i64, i64, i64, i64, i64, i64, %union.anon, ptr }
%union.anon = type { %struct.hdr_iter_linear }
%struct.hdr_iter_linear = type { i64, i64, i64, i64 }
%struct.hdr_iter_percentiles = type { i8, i32, double, double }

; Function Attrs: nounwind uwtable
define internal i32 @count_leading_zeros_64(i64 noundef %value) #0 {
entry:
  %value.addr = alloca i64, align 8
  store i64 %value, ptr %value.addr, align 8
  %0 = load i64, ptr %value.addr, align 8
  %1 = call i64 @llvm.ctlz.i64(i64 %0, i1 true)
  %cast = trunc i64 %1 to i32
  ret i32 %cast
}

; Function Attrs: nounwind uwtable
define internal i64 @value_from_index(i32 noundef %bucket_index, i32 noundef %sub_bucket_index, i32 noundef %unit_magnitude) #0 {
entry:
  %bucket_index.addr = alloca i32, align 4
  %sub_bucket_index.addr = alloca i32, align 4
  %unit_magnitude.addr = alloca i32, align 4
  store i32 %bucket_index, ptr %bucket_index.addr, align 4
  store i32 %sub_bucket_index, ptr %sub_bucket_index.addr, align 4
  store i32 %unit_magnitude, ptr %unit_magnitude.addr, align 4
  %0 = load i32, ptr %sub_bucket_index.addr, align 4
  %conv = sext i32 %0 to i64
  %1 = load i32, ptr %bucket_index.addr, align 4
  %2 = load i32, ptr %unit_magnitude.addr, align 4
  %add = add nsw i32 %1, %2
  %sh_prom = zext i32 %add to i64
  %shl = shl i64 %conv, %sh_prom
  ret i64 %shl
}

; Function Attrs: nounwind uwtable
define internal i32 @get_sub_bucket_index(i64 noundef %value, i32 noundef %bucket_index, i32 noundef %unit_magnitude) #0 {
entry:
  %value.addr = alloca i64, align 8
  %bucket_index.addr = alloca i32, align 4
  %unit_magnitude.addr = alloca i32, align 4
  store i64 %value, ptr %value.addr, align 8
  store i32 %bucket_index, ptr %bucket_index.addr, align 4
  store i32 %unit_magnitude, ptr %unit_magnitude.addr, align 4
  %0 = load i64, ptr %value.addr, align 8
  %1 = load i32, ptr %bucket_index.addr, align 4
  %2 = load i32, ptr %unit_magnitude.addr, align 4
  %add = add nsw i32 %1, %2
  %sh_prom = zext i32 %add to i64
  %shr = ashr i64 %0, %sh_prom
  %conv = trunc i64 %shr to i32
  ret i32 %conv
}

; Function Attrs: nounwind uwtable
define internal i32 @get_bucket_index(ptr noundef %h, i64 noundef %value) #0 {
entry:
  %h.addr = alloca ptr, align 8
  %value.addr = alloca i64, align 8
  %pow2ceiling = alloca i32, align 4
  store ptr %h, ptr %h.addr, align 8
  store i64 %value, ptr %value.addr, align 8
  %0 = load i64, ptr %value.addr, align 8
  %1 = load ptr, ptr %h.addr, align 8
  %sub_bucket_mask = getelementptr inbounds %struct.hdr_histogram, ptr %1, i32 0, i32 6
  %2 = load i64, ptr %sub_bucket_mask, align 8
  %or = or i64 %0, %2
  %call = call i32 @count_leading_zeros_64(i64 noundef %or)
  %sub = sub nsw i32 64, %call
  store i32 %sub, ptr %pow2ceiling, align 4
  %3 = load i32, ptr %pow2ceiling, align 4
  %4 = load ptr, ptr %h.addr, align 8
  %unit_magnitude = getelementptr inbounds %struct.hdr_histogram, ptr %4, i32 0, i32 2
  %5 = load i32, ptr %unit_magnitude, align 8
  %sub1 = sub nsw i32 %3, %5
  %6 = load ptr, ptr %h.addr, align 8
  %sub_bucket_half_count_magnitude = getelementptr inbounds %struct.hdr_histogram, ptr %6, i32 0, i32 4
  %7 = load i32, ptr %sub_bucket_half_count_magnitude, align 8
  %add = add nsw i32 %7, 1
  %sub2 = sub nsw i32 %sub1, %add
  ret i32 %sub2
}

; Function Attrs: nounwind uwtable
define dso_local i64 @hdr_size_of_equivalent_value_range(ptr noundef %h, i64 noundef %value) #0 {
entry:
  %h.addr = alloca ptr, align 8
  %value.addr = alloca i64, align 8
  %bucket_index = alloca i32, align 4
  %sub_bucket_index = alloca i32, align 4
  %adjusted_bucket = alloca i32, align 4
  store ptr %h, ptr %h.addr, align 8
  store i64 %value, ptr %value.addr, align 8
  %0 = load ptr, ptr %h.addr, align 8
  %1 = load i64, ptr %value.addr, align 8
  %call = call i32 @get_bucket_index(ptr noundef %0, i64 noundef %1)
  store i32 %call, ptr %bucket_index, align 4
  %2 = load i64, ptr %value.addr, align 8
  %3 = load i32, ptr %bucket_index, align 4
  %4 = load ptr, ptr %h.addr, align 8
  %unit_magnitude = getelementptr inbounds %struct.hdr_histogram, ptr %4, i32 0, i32 2
  %5 = load i32, ptr %unit_magnitude, align 8
  %call1 = call i32 @get_sub_bucket_index(i64 noundef %2, i32 noundef %3, i32 noundef %5)
  store i32 %call1, ptr %sub_bucket_index, align 4
  %6 = load i32, ptr %sub_bucket_index, align 4
  %7 = load ptr, ptr %h.addr, align 8
  %sub_bucket_count = getelementptr inbounds %struct.hdr_histogram, ptr %7, i32 0, i32 7
  %8 = load i32, ptr %sub_bucket_count, align 8
  %cmp = icmp sge i32 %6, %8
  br i1 %cmp, label %cond.true, label %cond.false

cond.true:                                        ; preds = %entry
  %9 = load i32, ptr %bucket_index, align 4
  %add = add nsw i32 %9, 1
  br label %cond.end

cond.false:                                       ; preds = %entry
  %10 = load i32, ptr %bucket_index, align 4
  br label %cond.end

cond.end:                                         ; preds = %cond.false, %cond.true
  %cond = phi i32 [ %add, %cond.true ], [ %10, %cond.false ]
  store i32 %cond, ptr %adjusted_bucket, align 4
  %11 = load ptr, ptr %h.addr, align 8
  %unit_magnitude2 = getelementptr inbounds %struct.hdr_histogram, ptr %11, i32 0, i32 2
  %12 = load i32, ptr %unit_magnitude2, align 8
  %13 = load i32, ptr %adjusted_bucket, align 4
  %add3 = add nsw i32 %12, %13
  %sh_prom = zext i32 %add3 to i64
  %shl = shl i64 1, %sh_prom
  ret i64 %shl
}

; Function Attrs: nounwind uwtable
define internal i64 @lowest_equivalent_value(ptr noundef %h, i64 noundef %value) #0 {
entry:
  %h.addr = alloca ptr, align 8
  %value.addr = alloca i64, align 8
  %bucket_index = alloca i32, align 4
  %sub_bucket_index = alloca i32, align 4
  store ptr %h, ptr %h.addr, align 8
  store i64 %value, ptr %value.addr, align 8
  %0 = load ptr, ptr %h.addr, align 8
  %1 = load i64, ptr %value.addr, align 8
  %call = call i32 @get_bucket_index(ptr noundef %0, i64 noundef %1)
  store i32 %call, ptr %bucket_index, align 4
  %2 = load i64, ptr %value.addr, align 8
  %3 = load i32, ptr %bucket_index, align 4
  %4 = load ptr, ptr %h.addr, align 8
  %unit_magnitude = getelementptr inbounds %struct.hdr_histogram, ptr %4, i32 0, i32 2
  %5 = load i32, ptr %unit_magnitude, align 8
  %call1 = call i32 @get_sub_bucket_index(i64 noundef %2, i32 noundef %3, i32 noundef %5)
  store i32 %call1, ptr %sub_bucket_index, align 4
  %6 = load i32, ptr %bucket_index, align 4
  %7 = load i32, ptr %sub_bucket_index, align 4
  %8 = load ptr, ptr %h.addr, align 8
  %unit_magnitude2 = getelementptr inbounds %struct.hdr_histogram, ptr %8, i32 0, i32 2
  %9 = load i32, ptr %unit_magnitude2, align 8
  %call3 = call i64 @value_from_index(i32 noundef %6, i32 noundef %7, i32 noundef %9)
  ret i64 %call3
}

; Function Attrs: nounwind uwtable
define dso_local i64 @hdr_next_non_equivalent_value(ptr noundef %h, i64 noundef %value) #0 {
entry:
  %h.addr = alloca ptr, align 8
  %value.addr = alloca i64, align 8
  store ptr %h, ptr %h.addr, align 8
  store i64 %value, ptr %value.addr, align 8
  %0 = load ptr, ptr %h.addr, align 8
  %1 = load i64, ptr %value.addr, align 8
  %call = call i64 @lowest_equivalent_value(ptr noundef %0, i64 noundef %1)
  %2 = load ptr, ptr %h.addr, align 8
  %3 = load i64, ptr %value.addr, align 8
  %call1 = call i64 @hdr_size_of_equivalent_value_range(ptr noundef %2, i64 noundef %3)
  %add = add nsw i64 %call, %call1
  ret i64 %add
}

; Function Attrs: nounwind uwtable
define internal void @update_iterated_values(ptr noundef %iter, i64 noundef %new_value_iterated_to) #0 {
entry:
  %iter.addr = alloca ptr, align 8
  %new_value_iterated_to.addr = alloca i64, align 8
  store ptr %iter, ptr %iter.addr, align 8
  store i64 %new_value_iterated_to, ptr %new_value_iterated_to.addr, align 8
  %0 = load ptr, ptr %iter.addr, align 8
  %value_iterated_to = getelementptr inbounds %struct.hdr_iter, ptr %0, i32 0, i32 10
  %1 = load i64, ptr %value_iterated_to, align 8
  %2 = load ptr, ptr %iter.addr, align 8
  %value_iterated_from = getelementptr inbounds %struct.hdr_iter, ptr %2, i32 0, i32 9
  store i64 %1, ptr %value_iterated_from, align 8
  %3 = load i64, ptr %new_value_iterated_to.addr, align 8
  %4 = load ptr, ptr %iter.addr, align 8
  %value_iterated_to1 = getelementptr inbounds %struct.hdr_iter, ptr %4, i32 0, i32 10
  store i64 %3, ptr %value_iterated_to1, align 8
  ret void
}

; Function Attrs: nounwind uwtable
define internal i64 @highest_equivalent_value(ptr noundef %h, i64 noundef %value) #0 {
entry:
  %h.addr = alloca ptr, align 8
  %value.addr = alloca i64, align 8
  store ptr %h, ptr %h.addr, align 8
  store i64 %value, ptr %value.addr, align 8
  %0 = load ptr, ptr %h.addr, align 8
  %1 = load i64, ptr %value.addr, align 8
  %call = call i64 @hdr_next_non_equivalent_value(ptr noundef %0, i64 noundef %1)
  %sub = sub nsw i64 %call, 1
  ret i64 %sub
}

; Function Attrs: nounwind uwtable
define internal zeroext i1 @basic_iter_next(ptr noundef %iter) #0 {
entry:
  %retval = alloca i1, align 1
  %iter.addr = alloca ptr, align 8
  store ptr %iter, ptr %iter.addr, align 8
  %0 = load ptr, ptr %iter.addr, align 8
  %call = call zeroext i1 @has_next(ptr noundef %0)
  br i1 %call, label %lor.lhs.false, label %if.then

lor.lhs.false:                                    ; preds = %entry
  %1 = load ptr, ptr %iter.addr, align 8
  %counts_index = getelementptr inbounds %struct.hdr_iter, ptr %1, i32 0, i32 1
  %2 = load i32, ptr %counts_index, align 8
  %3 = load ptr, ptr %iter.addr, align 8
  %h = getelementptr inbounds %struct.hdr_iter, ptr %3, i32 0, i32 0
  %4 = load ptr, ptr %h, align 8
  %counts_len = getelementptr inbounds %struct.hdr_histogram, ptr %4, i32 0, i32 13
  %5 = load i32, ptr %counts_len, align 8
  %cmp = icmp sge i32 %2, %5
  br i1 %cmp, label %if.then, label %if.end

if.then:                                          ; preds = %lor.lhs.false, %entry
  store i1 false, ptr %retval, align 1
  br label %return

if.end:                                           ; preds = %lor.lhs.false
  %6 = load ptr, ptr %iter.addr, align 8
  %call1 = call zeroext i1 @move_next(ptr noundef %6)
  store i1 true, ptr %retval, align 1
  br label %return

return:                                           ; preds = %if.end, %if.then
  %7 = load i1, ptr %retval, align 1
  ret i1 %7
}

; Function Attrs: nounwind uwtable
define internal zeroext i1 @has_next(ptr noundef %iter) #0 {
entry:
  %iter.addr = alloca ptr, align 8
  store ptr %iter, ptr %iter.addr, align 8
  %0 = load ptr, ptr %iter.addr, align 8
  %cumulative_count = getelementptr inbounds %struct.hdr_iter, ptr %0, i32 0, i32 4
  %1 = load i64, ptr %cumulative_count, align 8
  %2 = load ptr, ptr %iter.addr, align 8
  %total_count = getelementptr inbounds %struct.hdr_iter, ptr %2, i32 0, i32 2
  %3 = load i64, ptr %total_count, align 8
  %cmp = icmp slt i64 %1, %3
  ret i1 %cmp
}

; Function Attrs: nounwind uwtable
define internal zeroext i1 @percentile_iter_next(ptr noundef %iter) #0 {
entry:
  %retval = alloca i1, align 1
  %iter.addr = alloca ptr, align 8
  %temp = alloca i64, align 8
  %half_distance = alloca i64, align 8
  %percentile_reporting_ticks = alloca i64, align 8
  %percentiles = alloca ptr, align 8
  %current_percentile = alloca double, align 8
  store ptr %iter, ptr %iter.addr, align 8
  %0 = load ptr, ptr %iter.addr, align 8
  %specifics = getelementptr inbounds %struct.hdr_iter, ptr %0, i32 0, i32 11
  store ptr %specifics, ptr %percentiles, align 8
  %1 = load ptr, ptr %iter.addr, align 8
  %call = call zeroext i1 @has_next(ptr noundef %1)
  br i1 %call, label %if.end3, label %if.then

if.then:                                          ; preds = %entry
  %2 = load ptr, ptr %percentiles, align 8
  %seen_last_value = getelementptr inbounds %struct.hdr_iter_percentiles, ptr %2, i32 0, i32 0
  %3 = load i8, ptr %seen_last_value, align 8
  %tobool = trunc i8 %3 to i1
  br i1 %tobool, label %if.then1, label %if.end

if.then1:                                         ; preds = %if.then
  store i1 false, ptr %retval, align 1
  br label %return

if.end:                                           ; preds = %if.then
  %4 = load ptr, ptr %percentiles, align 8
  %seen_last_value2 = getelementptr inbounds %struct.hdr_iter_percentiles, ptr %4, i32 0, i32 0
  store i8 1, ptr %seen_last_value2, align 8
  %5 = load ptr, ptr %percentiles, align 8
  %percentile = getelementptr inbounds %struct.hdr_iter_percentiles, ptr %5, i32 0, i32 3
  store double 1.000000e+02, ptr %percentile, align 8
  store i1 true, ptr %retval, align 1
  br label %return

if.end3:                                          ; preds = %entry
  %6 = load ptr, ptr %iter.addr, align 8
  %counts_index = getelementptr inbounds %struct.hdr_iter, ptr %6, i32 0, i32 1
  %7 = load i32, ptr %counts_index, align 8
  %cmp = icmp eq i32 %7, -1
  br i1 %cmp, label %land.lhs.true, label %if.end6

land.lhs.true:                                    ; preds = %if.end3
  %8 = load ptr, ptr %iter.addr, align 8
  %call4 = call zeroext i1 @basic_iter_next(ptr noundef %8)
  br i1 %call4, label %if.end6, label %if.then5

if.then5:                                         ; preds = %land.lhs.true
  store i1 false, ptr %retval, align 1
  br label %return

if.end6:                                          ; preds = %land.lhs.true, %if.end3
  br label %do.body

do.body:                                          ; preds = %do.cond, %if.end6
  %9 = load ptr, ptr %iter.addr, align 8
  %cumulative_count = getelementptr inbounds %struct.hdr_iter, ptr %9, i32 0, i32 4
  %10 = load i64, ptr %cumulative_count, align 8
  %conv = sitofp i64 %10 to double
  %mul = fmul double 1.000000e+02, %conv
  %11 = load ptr, ptr %iter.addr, align 8
  %h = getelementptr inbounds %struct.hdr_iter, ptr %11, i32 0, i32 0
  %12 = load ptr, ptr %h, align 8
  %total_count = getelementptr inbounds %struct.hdr_histogram, ptr %12, i32 0, i32 14
  %13 = load i64, ptr %total_count, align 8
  %conv7 = sitofp i64 %13 to double
  %div = fdiv double %mul, %conv7
  store double %div, ptr %current_percentile, align 8
  %14 = load ptr, ptr %iter.addr, align 8
  %count = getelementptr inbounds %struct.hdr_iter, ptr %14, i32 0, i32 3
  %15 = load i64, ptr %count, align 8
  %cmp8 = icmp ne i64 %15, 0
  br i1 %cmp8, label %land.lhs.true10, label %if.end33

land.lhs.true10:                                  ; preds = %do.body
  %16 = load ptr, ptr %percentiles, align 8
  %percentile_to_iterate_to = getelementptr inbounds %struct.hdr_iter_percentiles, ptr %16, i32 0, i32 2
  %17 = load double, ptr %percentile_to_iterate_to, align 8
  %18 = load double, ptr %current_percentile, align 8
  %cmp11 = fcmp ole double %17, %18
  br i1 %cmp11, label %if.then13, label %if.end33

if.then13:                                        ; preds = %land.lhs.true10
  %19 = load ptr, ptr %iter.addr, align 8
  %20 = load ptr, ptr %iter.addr, align 8
  %h14 = getelementptr inbounds %struct.hdr_iter, ptr %20, i32 0, i32 0
  %21 = load ptr, ptr %h14, align 8
  %22 = load ptr, ptr %iter.addr, align 8
  %value = getelementptr inbounds %struct.hdr_iter, ptr %22, i32 0, i32 5
  %23 = load i64, ptr %value, align 8
  %call15 = call i64 @highest_equivalent_value(ptr noundef %21, i64 noundef %23)
  call void @update_iterated_values(ptr noundef %19, i64 noundef %call15)
  %24 = load ptr, ptr %percentiles, align 8
  %percentile_to_iterate_to16 = getelementptr inbounds %struct.hdr_iter_percentiles, ptr %24, i32 0, i32 2
  %25 = load double, ptr %percentile_to_iterate_to16, align 8
  %26 = load ptr, ptr %percentiles, align 8
  %percentile17 = getelementptr inbounds %struct.hdr_iter_percentiles, ptr %26, i32 0, i32 3
  store double %25, ptr %percentile17, align 8
  %27 = load ptr, ptr %percentiles, align 8
  %percentile_to_iterate_to18 = getelementptr inbounds %struct.hdr_iter_percentiles, ptr %27, i32 0, i32 2
  %28 = load double, ptr %percentile_to_iterate_to18, align 8
  %sub = fsub double 1.000000e+02, %28
  %div19 = fdiv double 1.000000e+02, %sub
  %call20 = call double @log(double noundef %div19) #5
  %call21 = call double @log(double noundef 2.000000e+00) #5
  %div22 = fdiv double %call20, %call21
  %conv23 = fptosi double %div22 to i64
  %add = add nsw i64 %conv23, 1
  store i64 %add, ptr %temp, align 8
  %29 = load i64, ptr %temp, align 8
  %conv24 = sitofp i64 %29 to double
  %call25 = call double @pow(double noundef 2.000000e+00, double noundef %conv24) #5
  %conv26 = fptosi double %call25 to i64
  store i64 %conv26, ptr %half_distance, align 8
  %30 = load ptr, ptr %percentiles, align 8
  %ticks_per_half_distance = getelementptr inbounds %struct.hdr_iter_percentiles, ptr %30, i32 0, i32 1
  %31 = load i32, ptr %ticks_per_half_distance, align 4
  %conv27 = sext i32 %31 to i64
  %32 = load i64, ptr %half_distance, align 8
  %mul28 = mul nsw i64 %conv27, %32
  store i64 %mul28, ptr %percentile_reporting_ticks, align 8
  %33 = load i64, ptr %percentile_reporting_ticks, align 8
  %conv29 = sitofp i64 %33 to double
  %div30 = fdiv double 1.000000e+02, %conv29
  %34 = load ptr, ptr %percentiles, align 8
  %percentile_to_iterate_to31 = getelementptr inbounds %struct.hdr_iter_percentiles, ptr %34, i32 0, i32 2
  %35 = load double, ptr %percentile_to_iterate_to31, align 8
  %add32 = fadd double %35, %div30
  store double %add32, ptr %percentile_to_iterate_to31, align 8
  store i1 true, ptr %retval, align 1
  br label %return

if.end33:                                         ; preds = %land.lhs.true10, %do.body
  br label %do.cond

do.cond:                                          ; preds = %if.end33
  %36 = load ptr, ptr %iter.addr, align 8
  %call34 = call zeroext i1 @basic_iter_next(ptr noundef %36)
  br i1 %call34, label %do.body, label %do.end

do.end:                                           ; preds = %do.cond
  store i1 true, ptr %retval, align 1
  br label %return

return:                                           ; preds = %do.end, %if.then13, %if.then5, %if.end, %if.then1
  %37 = load i1, ptr %retval, align 1
  ret i1 %37
}