; Function Attrs: nounwind uwtable
define internal noundef zeroext i1 @percentile_iter_next(ptr nocapture noundef %iter) #6 {
entry:
  %specifics = getelementptr inbounds i8, ptr %iter, i64 88
  %0 = getelementptr i8, ptr %iter, i64 16
  %iter.val = load i64, ptr %0, align 8
  %1 = getelementptr i8, ptr %iter, i64 32
  %iter.val20 = load i64, ptr %1, align 8
  %cmp.i = icmp slt i64 %iter.val20, %iter.val
  br i1 %cmp.i, label %if.end3, label %if.then

if.then:                                          ; preds = %entry
  %2 = load i8, ptr %specifics, align 8
  %3 = and i8 %2, 1
  %tobool.not = icmp eq i8 %3, 0
  br i1 %tobool.not, label %if.end, label %return

if.end:                                           ; preds = %if.then
  store i8 1, ptr %specifics, align 8
  %percentile = getelementptr inbounds i8, ptr %iter, i64 104
  store double 1.000000e+02, ptr %percentile, align 8
  br label %return

if.end3:                                          ; preds = %entry
  %counts_index = getelementptr inbounds i8, ptr %iter, i64 8
  %4 = load i32, ptr %counts_index, align 8
  %cmp = icmp eq i32 %4, -1
  br i1 %cmp, label %lor.lhs.false.i, label %if.end6

lor.lhs.false.i:                                  ; preds = %if.end3
  %5 = load ptr, ptr %iter, align 8
  %counts_len.i = getelementptr inbounds i8, ptr %5, i64 80
  %6 = load i32, ptr %counts_len.i, align 8
  %cmp.not.i = icmp sgt i32 %6, -1
  br i1 %cmp.not.i, label %basic_iter_next.exit.thread, label %return

basic_iter_next.exit.thread:                      ; preds = %lor.lhs.false.i
  %call1.i = tail call fastcc zeroext i1 @move_next(ptr noundef nonnull %iter)
  br label %if.end6

if.end6:                                          ; preds = %basic_iter_next.exit.thread, %if.end3
  %count = getelementptr inbounds i8, ptr %iter, i64 24
  %percentile_to_iterate_to = getelementptr inbounds i8, ptr %iter, i64 96
  br label %do.body

do.body:                                          ; preds = %basic_iter_next.exit31, %if.end6
  %7 = load ptr, ptr %iter, align 8
  %8 = load i64, ptr %count, align 8
  %cmp8.not = icmp eq i64 %8, 0
  %iter.val4.i22.pre = load i64, ptr %1, align 8
  br i1 %cmp8.not, label %do.cond, label %land.lhs.true10

land.lhs.true10:                                  ; preds = %do.body
  %conv = sitofp i64 %iter.val4.i22.pre to double
  %mul = fmul double %conv, 1.000000e+02
  %total_count = getelementptr inbounds i8, ptr %7, i64 88
  %9 = load i64, ptr %total_count, align 8
  %conv7 = sitofp i64 %9 to double
  %div = fdiv double %mul, %conv7
  %10 = load double, ptr %percentile_to_iterate_to, align 8
  %cmp11 = fcmp ugt double %10, %div
  br i1 %cmp11, label %do.cond, label %if.then13

if.then13:                                        ; preds = %land.lhs.true10
  %value = getelementptr inbounds i8, ptr %iter, i64 40
  %11 = load i64, ptr %value, align 8
  %sub_bucket_mask.i.i.i.i = getelementptr inbounds i8, ptr %7, i64 32
  %12 = load i64, ptr %sub_bucket_mask.i.i.i.i, align 8
  %or.i.i.i.i = or i64 %12, %11
  %13 = tail call i64 @llvm.ctlz.i64(i64 %or.i.i.i.i, i1 true), !range !5
  %cast.i.i.i.i.i = trunc i64 %13 to i32
  %sub_bucket_half_count_magnitude.i.i.i.i = getelementptr inbounds i8, ptr %7, i64 24
  %14 = load i32, ptr %sub_bucket_half_count_magnitude.i.i.i.i, align 8
  %15 = add i32 %14, %cast.i.i.i.i.i
  %add.i.i.i.i = sub i32 63, %15
  %sh_prom.i.i.i.i = zext nneg i32 %add.i.i.i.i to i64
  %shr.i.i.i.i = ashr i64 %11, %sh_prom.i.i.i.i
  %sext.i.i.i = shl i64 %shr.i.i.i.i, 32
  %conv.i5.i.i.i = ashr exact i64 %sext.i.i.i, 32
  %shl.i.i.i.i = shl i64 %conv.i5.i.i.i, %sh_prom.i.i.i.i
  %conv.i.i.i.i = trunc i64 %shr.i.i.i.i to i32
  %sub_bucket_count.i.i.i = getelementptr inbounds i8, ptr %7, i64 40
  %16 = load i32, ptr %sub_bucket_count.i.i.i, align 8
  %cmp.not.i.i.i = icmp sle i32 %16, %conv.i.i.i.i
  %add.i.i.i = zext i1 %cmp.not.i.i.i to i32
  %add3.i.i.i = add i32 %add.i.i.i.i, %add.i.i.i
  %sh_prom.i.i.i = zext nneg i32 %add3.i.i.i to i64
  %shl.i.i.i = shl nuw i64 1, %sh_prom.i.i.i
  %add.i.i = add i64 %shl.i.i.i.i, -1
  %sub.i = add i64 %add.i.i, %shl.i.i.i
  %value_iterated_to.i = getelementptr inbounds i8, ptr %iter, i64 80
  %17 = load i64, ptr %value_iterated_to.i, align 8
  %value_iterated_from.i = getelementptr inbounds i8, ptr %iter, i64 72
  store i64 %17, ptr %value_iterated_from.i, align 8
  store i64 %sub.i, ptr %value_iterated_to.i, align 8
  %percentile17 = getelementptr inbounds i8, ptr %iter, i64 104
  store double %10, ptr %percentile17, align 8
  %sub = fsub double 1.000000e+02, %10
  %div19 = fdiv double 1.000000e+02, %sub
  %call20 = tail call double @log(double noundef %div19) #21
  %div22 = fdiv double %call20, 0x3FE62E42FEFA39EF
  %conv23 = fptosi double %div22 to i64
  %add = add nsw i64 %conv23, 1
  %conv24 = sitofp i64 %add to double
  %exp2 = tail call double @exp2(double %conv24) #21
  %conv26 = fptosi double %exp2 to i64
  %ticks_per_half_distance = getelementptr inbounds i8, ptr %iter, i64 92
  %18 = load i32, ptr %ticks_per_half_distance, align 4
  %conv27 = sext i32 %18 to i64
  %mul28 = mul nsw i64 %conv27, %conv26
  %conv29 = sitofp i64 %mul28 to double
  %div30 = fdiv double 1.000000e+02, %conv29
  %19 = load double, ptr %percentile_to_iterate_to, align 8
  %add32 = fadd double %19, %div30
  store double %add32, ptr %percentile_to_iterate_to, align 8
  br label %return

do.cond:                                          ; preds = %do.body, %land.lhs.true10
  %iter.val.i21 = load i64, ptr %0, align 8
  %cmp.i.i23 = icmp slt i64 %iter.val4.i22.pre, %iter.val.i21
  br i1 %cmp.i.i23, label %lor.lhs.false.i25, label %return

lor.lhs.false.i25:                                ; preds = %do.cond
  %20 = load i32, ptr %counts_index, align 8
  %counts_len.i27 = getelementptr inbounds i8, ptr %7, i64 80
  %21 = load i32, ptr %counts_len.i27, align 8
  %cmp.not.i28 = icmp slt i32 %20, %21
  br i1 %cmp.not.i28, label %basic_iter_next.exit31, label %return

basic_iter_next.exit31:                           ; preds = %lor.lhs.false.i25
  %call1.i30 = tail call fastcc zeroext i1 @move_next(ptr noundef nonnull %iter)
  br label %do.body

return:                                           ; preds = %do.cond, %lor.lhs.false.i25, %lor.lhs.false.i, %if.then, %if.then13, %if.end
  %retval.0 = phi i1 [ true, %if.then13 ], [ true, %if.end ], [ false, %if.then ], [ false, %lor.lhs.false.i ], [ true, %lor.lhs.false.i25 ], [ true, %do.cond ]
  ret i1 %retval.0
}